target datalayout = "e-m:e-p270:32:32-p271:32:32-p272:64:64-i64:64-i128:128-f80:128-n8:16:32:64-S128"
target triple = "x86_64-pc-linux-gnu"

%class.mem_trap_t = type { %class.trap_t, i8, i64, i64, i64 }
%class.trap_t = type { ptr, i64 }

@_ZTI29trap_instruction_access_fault = linkonce_odr constant { ptr, ptr, ptr } { ptr getelementptr inbounds (ptr, ptr @_ZTVN10__cxxabiv120__si_class_type_infoE, i64 2), ptr @_ZTS29trap_instruction_access_fault, ptr @_ZTI10mem_trap_t }, comdat, align 8
@_ZTI22trap_load_access_fault = linkonce_odr constant { ptr, ptr, ptr } { ptr getelementptr inbounds (ptr, ptr @_ZTVN10__cxxabiv120__si_class_type_infoE, i64 2), ptr @_ZTS22trap_load_access_fault, ptr @_ZTI10mem_trap_t }, comdat, align 8
@_ZTI23trap_store_access_fault = linkonce_odr constant { ptr, ptr, ptr } { ptr getelementptr inbounds (ptr, ptr @_ZTVN10__cxxabiv120__si_class_type_infoE, i64 2), ptr @_ZTS23trap_store_access_fault, ptr @_ZTI10mem_trap_t }, comdat, align 8

; Function Attrs: mustprogress nounwind uwtable
define linkonce_odr void @_ZN6trap_tC2Em(ptr noundef nonnull align 8 dereferenceable(16) %0, i64 noundef %1) unnamed_addr #5 comdat align 2 {
  %3 = alloca ptr, align 8
  %4 = alloca i64, align 8
  store ptr %0, ptr %3, align 8, !tbaa !296
  store i64 %1, ptr %4, align 8, !tbaa !57
  %5 = load ptr, ptr %3, align 8
  store ptr getelementptr inbounds inrange(-16, 80) ({ [12 x ptr] }, ptr @_ZTV6trap_t, i32 0, i32 0, i32 2), ptr %5, align 8, !tbaa !52
  %6 = getelementptr inbounds nuw %class.trap_t, ptr %5, i32 0, i32 1
  %7 = load i64, ptr %4, align 8, !tbaa !57
  store i64 %7, ptr %6, align 8, !tbaa !373
  ret void
}

; Function Attrs: mustprogress uwtable
define linkonce_odr void @_ZN10mem_trap_tC2Embmmm(ptr noundef nonnull align 8 dereferenceable(48) %0, i64 noundef %1, i1 noundef zeroext %2, i64 noundef %3, i64 noundef %4, i64 noundef %5) unnamed_addr #4 comdat align 2 {
  %7 = alloca ptr, align 8
  %8 = alloca i64, align 8
  %9 = alloca i8, align 1
  %10 = alloca i64, align 8
  %11 = alloca i64, align 8
  %12 = alloca i64, align 8
  store ptr %0, ptr %7, align 8, !tbaa !365
  store i64 %1, ptr %8, align 8, !tbaa !57
  %13 = zext i1 %2 to i8
  store i8 %13, ptr %9, align 1, !tbaa !65
  store i64 %3, ptr %10, align 8, !tbaa !57
  store i64 %4, ptr %11, align 8, !tbaa !57
  store i64 %5, ptr %12, align 8, !tbaa !57
  %14 = load ptr, ptr %7, align 8
  %15 = load i64, ptr %8, align 8, !tbaa !57
  call void @_ZN6trap_tC2Em(ptr noundef nonnull align 8 dereferenceable(16) %14, i64 noundef %15)
  store ptr getelementptr inbounds inrange(-16, 80) ({ [12 x ptr] }, ptr @_ZTV10mem_trap_t, i32 0, i32 0, i32 2), ptr %14, align 8, !tbaa !52
  %16 = getelementptr inbounds nuw %class.mem_trap_t, ptr %14, i32 0, i32 1
  %17 = load i8, ptr %9, align 1, !tbaa !65, !range !68, !noundef !69
  %18 = trunc i8 %17 to i1
  %19 = zext i1 %18 to i8
  store i8 %19, ptr %16, align 8, !tbaa !367
  %20 = getelementptr inbounds nuw %class.mem_trap_t, ptr %14, i32 0, i32 2
  %21 = load i64, ptr %10, align 8, !tbaa !57
  store i64 %21, ptr %20, align 8, !tbaa !370
  %22 = getelementptr inbounds nuw %class.mem_trap_t, ptr %14, i32 0, i32 3
  %23 = load i64, ptr %11, align 8, !tbaa !57
  store i64 %23, ptr %22, align 8, !tbaa !371
  %24 = getelementptr inbounds nuw %class.mem_trap_t, ptr %14, i32 0, i32 4
  %25 = load i64, ptr %12, align 8, !tbaa !57
  store i64 %25, ptr %24, align 8, !tbaa !372
  ret void
}

; Function Attrs: mustprogress uwtable
define linkonce_odr void @_ZN23trap_store_access_faultC2Ebmmm(ptr noundef nonnull align 8 dereferenceable(48) %0, i1 noundef zeroext %1, i64 noundef %2, i64 noundef %3, i64 noundef %4) unnamed_addr #4 comdat align 2 {
  %6 = alloca ptr, align 8
  %7 = alloca i8, align 1
  %8 = alloca i64, align 8
  %9 = alloca i64, align 8
  %10 = alloca i64, align 8
  store ptr %0, ptr %6, align 8, !tbaa !74
  %11 = zext i1 %1 to i8
  store i8 %11, ptr %7, align 1, !tbaa !65
  store i64 %2, ptr %8, align 8, !tbaa !57
  store i64 %3, ptr %9, align 8, !tbaa !57
  store i64 %4, ptr %10, align 8, !tbaa !57
  %12 = load ptr, ptr %6, align 8
  %13 = load i8, ptr %7, align 1, !tbaa !65, !range !68, !noundef !69
  %14 = trunc i8 %13 to i1
  %15 = load i64, ptr %8, align 8, !tbaa !57
  %16 = load i64, ptr %9, align 8, !tbaa !57
  %17 = load i64, ptr %10, align 8, !tbaa !57
  call void @_ZN10mem_trap_tC2Embmmm(ptr noundef nonnull align 8 dereferenceable(48) %12, i64 noundef 7, i1 noundef zeroext %14, i64 noundef %15, i64 noundef %16, i64 noundef %17)
  store ptr getelementptr inbounds inrange(-16, 80) ({ [12 x ptr] }, ptr @_ZTV23trap_store_access_fault, i32 0, i32 0, i32 2), ptr %12, align 8, !tbaa !52
  ret void
}

; Function Attrs: mustprogress uwtable
define linkonce_odr void @_ZN22trap_load_access_faultC2Ebmmm(ptr noundef nonnull align 8 dereferenceable(48) %0, i1 noundef zeroext %1, i64 noundef %2, i64 noundef %3, i64 noundef %4) unnamed_addr #4 comdat align 2 {
  %6 = alloca ptr, align 8
  %7 = alloca i8, align 1
  %8 = alloca i64, align 8
  %9 = alloca i64, align 8
  %10 = alloca i64, align 8
  store ptr %0, ptr %6, align 8, !tbaa !72
  %11 = zext i1 %1 to i8
  store i8 %11, ptr %7, align 1, !tbaa !65
  store i64 %2, ptr %8, align 8, !tbaa !57
  store i64 %3, ptr %9, align 8, !tbaa !57
  store i64 %4, ptr %10, align 8, !tbaa !57
  %12 = load ptr, ptr %6, align 8
  %13 = load i8, ptr %7, align 1, !tbaa !65, !range !68, !noundef !69
  %14 = trunc i8 %13 to i1
  %15 = load i64, ptr %8, align 8, !tbaa !57
  %16 = load i64, ptr %9, align 8, !tbaa !57
  %17 = load i64, ptr %10, align 8, !tbaa !57
  call void @_ZN10mem_trap_tC2Embmmm(ptr noundef nonnull align 8 dereferenceable(48) %12, i64 noundef 5, i1 noundef zeroext %14, i64 noundef %15, i64 noundef %16, i64 noundef %17)
  store ptr getelementptr inbounds inrange(-16, 80) ({ [12 x ptr] }, ptr @_ZTV22trap_load_access_fault, i32 0, i32 0, i32 2), ptr %12, align 8, !tbaa !52
  ret void
}

; Function Attrs: mustprogress uwtable
define linkonce_odr void @_ZN29trap_instruction_access_faultC2Ebmmm(ptr noundef nonnull align 8 dereferenceable(48) %0, i1 noundef zeroext %1, i64 noundef %2, i64 noundef %3, i64 noundef %4) unnamed_addr #4 comdat align 2 {
  %6 = alloca ptr, align 8
  %7 = alloca i8, align 1
  %8 = alloca i64, align 8
  %9 = alloca i64, align 8
  %10 = alloca i64, align 8
  store ptr %0, ptr %6, align 8, !tbaa !70
  %11 = zext i1 %1 to i8
  store i8 %11, ptr %7, align 1, !tbaa !65
  store i64 %2, ptr %8, align 8, !tbaa !57
  store i64 %3, ptr %9, align 8, !tbaa !57
  store i64 %4, ptr %10, align 8, !tbaa !57
  %12 = load ptr, ptr %6, align 8
  %13 = load i8, ptr %7, align 1, !tbaa !65, !range !68, !noundef !69
  %14 = trunc i8 %13 to i1
  %15 = load i64, ptr %8, align 8, !tbaa !57
  %16 = load i64, ptr %9, align 8, !tbaa !57
  %17 = load i64, ptr %10, align 8, !tbaa !57
  call void @_ZN10mem_trap_tC2Embmmm(ptr noundef nonnull align 8 dereferenceable(48) %12, i64 noundef 1, i1 noundef zeroext %14, i64 noundef %15, i64 noundef %16, i64 noundef %17)
  store ptr getelementptr inbounds inrange(-16, 80) ({ [12 x ptr] }, ptr @_ZTV29trap_instruction_access_fault, i32 0, i32 0, i32 2), ptr %12, align 8, !tbaa !52
  ret void
}

; Function Attrs: mustprogress uwtable
define void @_Z22throw_access_exceptionbm11access_type(i1 noundef zeroext %0, i64 noundef %1, i32 noundef %2) #4 personality ptr @__gxx_personality_v0 {
  %4 = alloca i8, align 1
  %5 = alloca i64, align 8
  %6 = alloca i32, align 4
  %7 = alloca ptr, align 8
  %8 = alloca i32, align 4
  %9 = zext i1 %0 to i8
  store i8 %9, ptr %4, align 1, !tbaa !65
  store i64 %1, ptr %5, align 8, !tbaa !57
  store i32 %2, ptr %6, align 4, !tbaa !66
  %10 = load i32, ptr %6, align 4, !tbaa !66
  switch i32 %10, label %41 [
    i32 2, label %11
    i32 0, label %21
    i32 1, label %31
  ]

11:                                               ; preds = %3
  %12 = call ptr @__cxa_allocate_exception(i64 48) #3
  %13 = load i8, ptr %4, align 1, !tbaa !65, !range !68, !noundef !69
  %14 = trunc i8 %13 to i1
  %15 = load i64, ptr %5, align 8, !tbaa !57
  invoke void @_ZN29trap_instruction_access_faultC2Ebmmm(ptr noundef nonnull align 8 dereferenceable(48) %12, i1 noundef zeroext %14, i64 noundef %15, i64 noundef 0, i64 noundef 0)
          to label %16 unwind label %17

16:                                               ; preds = %11
  call void @__cxa_throw(ptr %12, ptr @_ZTI29trap_instruction_access_fault, ptr @_ZN6trap_tD2Ev) #21
  unreachable

17:                                               ; preds = %11
  %18 = landingpad { ptr, i32 }
          cleanup
  %19 = extractvalue { ptr, i32 } %18, 0
  store ptr %19, ptr %7, align 8
  %20 = extractvalue { ptr, i32 } %18, 1
  store i32 %20, ptr %8, align 4
  call void @__cxa_free_exception(ptr %12) #3
  br label %42

21:                                               ; preds = %3
  %22 = call ptr @__cxa_allocate_exception(i64 48) #3
  %23 = load i8, ptr %4, align 1, !tbaa !65, !range !68, !noundef !69
  %24 = trunc i8 %23 to i1
  %25 = load i64, ptr %5, align 8, !tbaa !57
  invoke void @_ZN22trap_load_access_faultC2Ebmmm(ptr noundef nonnull align 8 dereferenceable(48) %22, i1 noundef zeroext %24, i64 noundef %25, i64 noundef 0, i64 noundef 0)
          to label %26 unwind label %27

26:                                               ; preds = %21
  call void @__cxa_throw(ptr %22, ptr @_ZTI22trap_load_access_fault, ptr @_ZN6trap_tD2Ev) #21
  unreachable

27:                                               ; preds = %21
  %28 = landingpad { ptr, i32 }
          cleanup
  %29 = extractvalue { ptr, i32 } %28, 0
  store ptr %29, ptr %7, align 8
  %30 = extractvalue { ptr, i32 } %28, 1
  store i32 %30, ptr %8, align 4
  call void @__cxa_free_exception(ptr %22) #3
  br label %42

31:                                               ; preds = %3
  %32 = call ptr @__cxa_allocate_exception(i64 48) #3
  %33 = load i8, ptr %4, align 1, !tbaa !65, !range !68, !noundef !69
  %34 = trunc i8 %33 to i1
  %35 = load i64, ptr %5, align 8, !tbaa !57
  invoke void @_ZN23trap_store_access_faultC2Ebmmm(ptr noundef nonnull align 8 dereferenceable(48) %32, i1 noundef zeroext %34, i64 noundef %35, i64 noundef 0, i64 noundef 0)
          to label %36 unwind label %37

36:                                               ; preds = %31
  call void @__cxa_throw(ptr %32, ptr @_ZTI23trap_store_access_fault, ptr @_ZN6trap_tD2Ev) #21
  unreachable

37:                                               ; preds = %31
  %38 = landingpad { ptr, i32 }
          cleanup
  %39 = extractvalue { ptr, i32 } %38, 0
  store ptr %39, ptr %7, align 8
  %40 = extractvalue { ptr, i32 } %38, 1
  store i32 %40, ptr %8, align 4
  call void @__cxa_free_exception(ptr %32) #3
  br label %42

41:                                               ; preds = %3
  call void @abort() #20
  unreachable

42:                                               ; preds = %37, %27, %17
  %43 = load ptr, ptr %7, align 8
  %44 = load i32, ptr %8, align 4
  %45 = insertvalue { ptr, i32 } poison, ptr %43, 0
  %46 = insertvalue { ptr, i32 } %45, i32 %44, 1
  resume { ptr, i32 } %46
}