; Function Attrs: cold mustprogress noreturn uwtable
define void @_Z22throw_access_exceptionbm11access_type(i1 noundef zeroext %0, i64 noundef %1, i32 noundef %2) local_unnamed_addr #8 personality ptr @__gxx_personality_v0 {
  switch i32 %2, label %25 [
    i32 2, label %4
    i32 0, label %11
    i32 1, label %18
  ]

4:                                                ; preds = %3
  %5 = tail call ptr @__cxa_allocate_exception(i64 48) #27
  %6 = zext i1 %0 to i8
  %7 = getelementptr inbounds nuw i8, ptr %5, i64 8
  store i64 1, ptr %7, align 8, !tbaa !58
  %8 = getelementptr inbounds nuw i8, ptr %5, i64 16
  store i8 %6, ptr %8, align 8, !tbaa !60
  %9 = getelementptr inbounds nuw i8, ptr %5, i64 24
  store i64 %1, ptr %9, align 8, !tbaa !62
  %10 = getelementptr inbounds nuw i8, ptr %5, i64 32
  tail call void @llvm.memset.p0.i64(ptr noundef nonnull align 8 dereferenceable(16) %10, i8 0, i64 16, i1 false)
  store ptr getelementptr inbounds nuw inrange(-16, 80) (i8, ptr @_ZTV29trap_instruction_access_fault, i64 16), ptr %5, align 8, !tbaa !40
  tail call void @__cxa_throw(ptr nonnull %5, ptr nonnull @_ZTI29trap_instruction_access_fault, ptr nonnull @_ZN6trap_tD2Ev) #28
  unreachable

11:                                               ; preds = %3
  %12 = tail call ptr @__cxa_allocate_exception(i64 48) #27
  %13 = zext i1 %0 to i8
  %14 = getelementptr inbounds nuw i8, ptr %12, i64 8
  store i64 5, ptr %14, align 8, !tbaa !58
  %15 = getelementptr inbounds nuw i8, ptr %12, i64 16
  store i8 %13, ptr %15, align 8, !tbaa !60
  %16 = getelementptr inbounds nuw i8, ptr %12, i64 24
  store i64 %1, ptr %16, align 8, !tbaa !62
  %17 = getelementptr inbounds nuw i8, ptr %12, i64 32
  tail call void @llvm.memset.p0.i64(ptr noundef nonnull align 8 dereferenceable(16) %17, i8 0, i64 16, i1 false)
  store ptr getelementptr inbounds nuw inrange(-16, 80) (i8, ptr @_ZTV22trap_load_access_fault, i64 16), ptr %12, align 8, !tbaa !40
  tail call void @__cxa_throw(ptr nonnull %12, ptr nonnull @_ZTI22trap_load_access_fault, ptr nonnull @_ZN6trap_tD2Ev) #28
  unreachable

18:                                               ; preds = %3
  %19 = tail call ptr @__cxa_allocate_exception(i64 48) #27
  %20 = zext i1 %0 to i8
  %21 = getelementptr inbounds nuw i8, ptr %19, i64 8
  store i64 7, ptr %21, align 8, !tbaa !58
  %22 = getelementptr inbounds nuw i8, ptr %19, i64 16
  store i8 %20, ptr %22, align 8, !tbaa !60
  %23 = getelementptr inbounds nuw i8, ptr %19, i64 24
  store i64 %1, ptr %23, align 8, !tbaa !62
  %24 = getelementptr inbounds nuw i8, ptr %19, i64 32
  tail call void @llvm.memset.p0.i64(ptr noundef nonnull align 8 dereferenceable(16) %24, i8 0, i64 16, i1 false)
  store ptr getelementptr inbounds nuw inrange(-16, 80) (i8, ptr @_ZTV23trap_store_access_fault, i64 16), ptr %19, align 8, !tbaa !40
  tail call void @__cxa_throw(ptr nonnull %19, ptr nonnull @_ZTI23trap_store_access_fault, ptr nonnull @_ZN6trap_tD2Ev) #28
  unreachable

25:                                               ; preds = %3
  tail call void @abort() #26
  unreachable
}